target datalayout = "e-m:e-p270:32:32-p271:32:32-p272:64:64-i64:64-i128:128-f80:128-n8:16:32:64-S128"
target triple = "x86_64-pc-linux-gnu"

%class.VMStorage = type { i8, i16, i32 }

; Function Attrs: mustprogress nounwind uwtable
define linkonce_odr hidden void @_ZN9VMStorageC2E11StorageTypetj(ptr noundef nonnull align 4 dereferenceable(8) %0, i8 noundef signext %1, i16 noundef zeroext %2, i32 noundef %3) unnamed_addr #1 comdat align 2 {
  %5 = alloca ptr, align 8
  %6 = alloca i8, align 1
  %7 = alloca i16, align 2
  %8 = alloca i32, align 4
  store ptr %0, ptr %5, align 8
  store i8 %1, ptr %6, align 1
  store i16 %2, ptr %7, align 2
  store i32 %3, ptr %8, align 4
  %9 = load ptr, ptr %5, align 8
  %10 = getelementptr inbounds %class.VMStorage, ptr %9, i32 0, i32 0
  %11 = load i8, ptr %6, align 1
  store i8 %11, ptr %10, align 4
  %12 = getelementptr inbounds %class.VMStorage, ptr %9, i32 0, i32 1
  %13 = load i16, ptr %7, align 2
  store i16 %13, ptr %12, align 2
  %14 = getelementptr inbounds %class.VMStorage, ptr %9, i32 0, i32 2
  %15 = load i32, ptr %8, align 4
  store i32 %15, ptr %14, align 4
  ret void
}

; Function Attrs: mustprogress nounwind uwtable
define hidden i64 @_ZN14ForeignGlobals15parse_vmstorageEP7oopDesc(ptr noundef %0) #1 align 2 {
  %2 = alloca %class.VMStorage, align 4
  %3 = alloca ptr, align 8
  %4 = alloca i8, align 1
  %5 = alloca i16, align 2
  %6 = alloca i32, align 4
  store ptr %0, ptr %3, align 8
  %7 = load ptr, ptr %3, align 8
  %8 = call noundef signext i8 @_ZN34jdk_internal_foreign_abi_VMStorage4typeEP7oopDesc(ptr noundef %7)
  store i8 %8, ptr %4, align 1
  %9 = load ptr, ptr %3, align 8
  %10 = call noundef signext i16 @_ZN34jdk_internal_foreign_abi_VMStorage20segment_mask_or_sizeEP7oopDesc(ptr noundef %9)
  store i16 %10, ptr %5, align 2
  %11 = load ptr, ptr %3, align 8
  %12 = call noundef i32 @_ZN34jdk_internal_foreign_abi_VMStorage15index_or_offsetEP7oopDesc(ptr noundef %11)
  store i32 %12, ptr %6, align 4
  %13 = load i8, ptr %4, align 1
  %14 = load i16, ptr %5, align 2
  %15 = load i32, ptr %6, align 4
  call void @_ZN9VMStorageC2E11StorageTypetj(ptr noundef nonnull align 4 dereferenceable(8) %2, i8 noundef signext %13, i16 noundef zeroext %14, i32 noundef %15)
  %16 = load i64, ptr %2, align 4
  ret i64 %16
}