; Function Attrs: mustprogress nounwind uwtable
define hidden i64 @_ZN14ForeignGlobals15parse_vmstorageEP7oopDesc(ptr noundef %0) local_unnamed_addr #4 align 2 {
  %2 = tail call noundef signext i8 @_ZN34jdk_internal_foreign_abi_VMStorage4typeEP7oopDesc(ptr noundef %0) #12
  %3 = tail call noundef signext i16 @_ZN34jdk_internal_foreign_abi_VMStorage20segment_mask_or_sizeEP7oopDesc(ptr noundef %0) #12
  %4 = tail call noundef i32 @_ZN34jdk_internal_foreign_abi_VMStorage15index_or_offsetEP7oopDesc(ptr noundef %0) #12
  %.sroa.3.0.insert.ext = zext i32 %4 to i64
  %.sroa.3.0.insert.shift = shl nuw i64 %.sroa.3.0.insert.ext, 32
  %.sroa.25.0.insert.ext = zext i16 %3 to i64
  %.sroa.25.0.insert.shift = shl nuw nsw i64 %.sroa.25.0.insert.ext, 16
  %.sroa.25.0.insert.insert = or disjoint i64 %.sroa.3.0.insert.shift, %.sroa.25.0.insert.shift
  %.sroa.0.0.insert.ext = zext i8 %2 to i64
  %.sroa.0.0.insert.insert = or disjoint i64 %.sroa.25.0.insert.insert, %.sroa.0.0.insert.ext
  ret i64 %.sroa.0.0.insert.insert
}